Certificate:
    Data:
        Version: 3 (0x2)
        Serial Number: 2 (0x2)
    Signature Algorithm: sha256WithRSAEncryption
        Issuer: CN=Test CA, ST=Stockholm, C=SE/emailAddress=info@info.se, O=Root Certification Authority
        Validity
            Not Before: Dec 26 18:43:08 2017 GMT
            Not After : Dec 24 18:43:08 2027 GMT
        Subject: CN=client1, ST=Stockholm, C=SE/emailAddress=info@info.se, O=Dev, O=Root Certification Authority, OU=Utv
        Subject Public Key Info:
            Public Key Algorithm: rsaEncryption
                Public-Key: (1024 bit)
                Modulus:
                    00:c1:8a:ff:71:f4:d0:a6:71:7c:51:da:08:31:95:
                    49:ea:82:9c:c7:a7:b8:58:c5:47:7c:8e:84:06:71:
                    93:ca:6d:ce:07:7a:37:c2:f8:7c:5c:e6:77:f8:e7:
                    da:8c:ca:2c:2e:0d:c4:88:65:45:6d:a1:02:f8:27:
                    9d:bc:61:62:89:92:25:9f:17:47:a2:4b:75:19:6a:
                    26:e7:b2:28:c6:fa:64:08:d1:38:34:41:15:5d:98:
                    cb:eb:44:7b:97:29:ec:10:09:f5:fc:ef:e0:11:c7:
                    7e:cd:30:1b:3b:ed:db:ab:e1:62:24:e7:fe:63:ec:
                    d5:77:8f:e3:78:d8:50:4f:31
                Exponent: 65537 (0x10001)
        X509v3 extensions:
            X509v3 Basic Constraints: 
                CA:FALSE
    Signature Algorithm: sha256WithRSAEncryption
         30:5c:53:13:10:89:cb:32:be:df:44:fc:9f:97:2b:e3:81:37:
         e9:51:56:90:ee:70:06:42:ec:d9:f9:fa:cf:53:a8:d8:0a:3d:
         55:b5:69:0a:4c:6d:27:0a:79:88:e8:b9:a7:7e:f8:b3:a4:7c:
         5a:f5:ed:d9:64:28:49:46:1a:9c:74:c7:3d:e4:57:2b:c2:70:
         41:a8:72:98:fa:97:80:74:11:dc:b6:b4:33:af:ee:b7:af:32:
         27:b4:ba:68:60:bf:f1:57:81:30:c7:31:d8:b3:e6:bd:50:9a:
         70:eb:01:07:b9:bd:22:91:c3:c7:7e:e6:2e:2a:d9:24:e0:37:
         36:d2:ec:f7:57:84:50:21:5d:f7:7d:29:9f:89:df:af:ea:bf:
         ff:8c:56:36:9c:5c:b7:4c:df:49:20:f4:8d:01:45:2e:eb:25:
         b5:56:81:12:21:63:c1:38:66:f4:9a:54:b3:31:2f:ed:12:21:
         8a:d1:fa:eb:e9:fe:e2:24:e4:ad:41:45:7d:ee:fd:5a:31:d7:
         a1:0b:e0:37:a6:53:4d:62:de:c4:84:57:b1:7e:2a:f4:3c:63:
         c0:df:cb:7b:9b:8a:0c:19:8f:7b:ec:33:db:c3:14:d0:87:c6:
         9f:92:6f:3c:01:c6:21:6a:a8:6f:19:c5:2d:bb:f8:cf:c8:96:
         7a:72:63:a7
-----BEGIN CERTIFICATE-----
MIIDDzCCAfegAwIBAgIBAjANBgkqhkiG9w0BAQsFADB3MRAwDgYDVQQDDAdUZXN0
IENBMRIwEAYDVQQIDAlTdG9ja2hvbG0xCzAJBgNVBAYTAlNFMRswGQYJKoZIhvcN
AQkBFgxpbmZvQGluZm8uc2UxJTAjBgNVBAoMHFJvb3QgQ2VydGlmaWNhdGlvbiBB
dXRob3JpdHkwHhcNMTcxMjI2MTg0MzA4WhcNMjcxMjI0MTg0MzA4WjCBkzEQMA4G
A1UEAwwHY2xpZW50MTESMBAGA1UECAwJU3RvY2tob2xtMQswCQYDVQQGEwJTRTEb
MBkGCSqGSIb3DQEJARYMaW5mb0BpbmZvLnNlMQwwCgYDVQQKDANEZXYxJTAjBgNV
BAoMHFJvb3QgQ2VydGlmaWNhdGlvbiBBdXRob3JpdHkxDDAKBgNVBAsMA1V0djCB
nzANBgkqhkiG9w0BAQEFAAOBjQAwgYkCgYEAwYr/cfTQpnF8UdoIMZVJ6oKcx6e4
WMVHfI6EBnGTym3OB3o3wvh8XOZ3+OfajMosLg3EiGVFbaEC+CedvGFiiZIlnxdH
okt1GWom57IoxvpkCNE4NEEVXZjL60R7lynsEAn1/O/gEcd+zTAbO+3bq+FiJOf+
Y+zVd4/jeNhQTzECAwEAAaMNMAswCQYDVR0TBAIwADANBgkqhkiG9w0BAQsFAAOC
AQEAMFxTExCJyzK+30T8n5cr44E36VFWkO5wBkLs2fn6z1Oo2Ao9VbVpCkxtJwp5
iOi5p374s6R8WvXt2WQoSUYanHTHPeRXK8JwQahymPqXgHQR3La0M6/ut68yJ7S6
aGC/8VeBMMcx2LPmvVCacOsBB7m9IpHDx37mLirZJOA3NtLs91eEUCFd930pn4nf
r+q//4xWNpxct0zfSSD0jQFFLusltVaBEiFjwThm9JpUszEv7RIhitH66+n+4iTk
rUFFfe79WjHXoQvgN6ZTTWLexIRXsX4q9DxjwN/Le5uKDBmPe+wz28MU0IfGn5Jv
PAHGIWqobxnFLbv4z8iWenJjpw==
-----END CERTIFICATE-----
