Certificate:
    Data:
        Version: 3 (0x2)
        Serial Number: 1 (0x1)
    Signature Algorithm: sha256WithRSAEncryption
        Issuer: CN=Test CA, ST=Stockholm, C=SE/emailAddress=info@info.se, O=Root Certification Authority
        Validity
            Not Before: Dec 26 18:42:52 2017 GMT
            Not After : Dec 24 18:42:52 2027 GMT
        Subject: CN=server1, ST=Stockholm, C=SE/emailAddress=info@info.se, O=Dev, O=Root Certification Authority, OU=Utv
        Subject Public Key Info:
            Public Key Algorithm: rsaEncryption
                Public-Key: (1024 bit)
                Modulus:
                    00:bb:c6:58:48:94:5a:1f:ea:d0:77:d9:c3:ba:e4:
                    89:a7:b8:18:8c:6c:1e:bd:77:d2:85:f0:f2:ee:ac:
                    5c:46:2e:2a:84:66:d5:b3:9a:e9:df:b4:7e:2e:89:
                    77:08:e4:95:6c:79:a4:3a:33:2f:00:48:9b:0e:1b:
                    ee:77:6f:4c:de:62:98:37:26:71:c3:0d:c6:08:20:
                    32:7a:05:b1:a2:7d:49:03:63:44:44:05:ee:33:c3:
                    99:cf:fb:72:df:ce:8a:0a:f6:b9:44:02:28:e2:97:
                    f0:81:0a:ca:7e:83:62:c2:01:91:6a:03:7e:b4:2b:
                    74:2e:45:6d:1b:8d:13:a4:b9
                Exponent: 65537 (0x10001)
        X509v3 extensions:
            X509v3 Basic Constraints: 
                CA:FALSE
    Signature Algorithm: sha256WithRSAEncryption
         a1:fb:5f:c0:9f:76:d2:5a:08:27:c4:30:fe:43:7e:bd:ad:1d:
         d3:60:e3:73:c1:ec:88:c9:1f:78:db:fe:95:27:79:68:e1:f5:
         f6:04:46:a2:b7:aa:e9:77:14:93:b0:18:a8:08:de:c3:b2:48:
         a2:b0:61:24:c0:25:5c:f1:1c:a0:23:49:b7:45:81:20:21:a3:
         0b:5f:04:e7:d3:26:bd:d9:46:4a:de:08:85:c7:33:b0:41:e6:
         c5:92:0f:c3:df:9c:d5:84:ac:dc:ed:81:09:be:c1:f5:e7:f6:
         6f:68:e1:ce:8b:38:71:f6:29:fd:5d:4c:53:11:06:0c:b8:ae:
         bd:63:7a:17:ae:86:bc:cb:6e:57:05:9e:61:cd:bf:c7:4e:2e:
         a6:42:d5:28:87:11:ba:e7:96:6a:c3:de:7b:bd:35:8a:7a:b3:
         1a:de:98:26:8b:6a:13:b8:93:50:82:46:84:5e:19:76:01:05:
         8e:79:f3:6e:3a:2c:9a:87:e7:61:65:c3:69:80:d6:59:a4:87:
         cb:db:30:31:56:55:90:49:84:97:3f:d6:f3:73:5e:57:23:16:
         b8:f1:ab:7c:dd:56:61:68:f4:89:26:f2:53:26:5f:c9:74:44:
         83:34:78:4b:d9:c7:cc:f0:bf:0e:b4:44:78:28:32:69:69:24:
         ff:e7:17:a0
-----BEGIN CERTIFICATE-----
MIIDDzCCAfegAwIBAgIBATANBgkqhkiG9w0BAQsFADB3MRAwDgYDVQQDDAdUZXN0
IENBMRIwEAYDVQQIDAlTdG9ja2hvbG0xCzAJBgNVBAYTAlNFMRswGQYJKoZIhvcN
AQkBFgxpbmZvQGluZm8uc2UxJTAjBgNVBAoMHFJvb3QgQ2VydGlmaWNhdGlvbiBB
dXRob3JpdHkwHhcNMTcxMjI2MTg0MjUyWhcNMjcxMjI0MTg0MjUyWjCBkzEQMA4G
A1UEAwwHc2VydmVyMTESMBAGA1UECAwJU3RvY2tob2xtMQswCQYDVQQGEwJTRTEb
MBkGCSqGSIb3DQEJARYMaW5mb0BpbmZvLnNlMQwwCgYDVQQKDANEZXYxJTAjBgNV
BAoMHFJvb3QgQ2VydGlmaWNhdGlvbiBBdXRob3JpdHkxDDAKBgNVBAsMA1V0djCB
nzANBgkqhkiG9w0BAQEFAAOBjQAwgYkCgYEAu8ZYSJRaH+rQd9nDuuSJp7gYjGwe
vXfShfDy7qxcRi4qhGbVs5rp37R+Lol3COSVbHmkOjMvAEibDhvud29M3mKYNyZx
ww3GCCAyegWxon1JA2NERAXuM8OZz/ty386KCva5RAIo4pfwgQrKfoNiwgGRagN+
tCt0LkVtG40TpLkCAwEAAaMNMAswCQYDVR0TBAIwADANBgkqhkiG9w0BAQsFAAOC
AQEAoftfwJ920loIJ8Qw/kN+va0d02Djc8HsiMkfeNv+lSd5aOH19gRGoreq6XcU
k7AYqAjew7JIorBhJMAlXPEcoCNJt0WBICGjC18E59MmvdlGSt4IhcczsEHmxZIP
w9+c1YSs3O2BCb7B9ef2b2jhzos4cfYp/V1MUxEGDLiuvWN6F66GvMtuVwWeYc2/
x04upkLVKIcRuueWasPee701inqzGt6YJotqE7iTUIJGhF4ZdgEFjnnzbjosmofn
YWXDaYDWWaSHy9swMVZVkEmElz/W83NeVyMWuPGrfN1WYWj0iSbyUyZfyXREgzR4
S9nHzPC/DrREeCgyaWkk/+cXoA==
-----END CERTIFICATE-----
